target datalayout = "e-m:e-p270:32:32-p271:32:32-p272:64:64-i64:64-i128:128-f80:128-n8:16:32:64-S128"
target triple = "x86_64-pc-linux-gnu"

%struct._zend_array = type { %struct._zend_refcounted_h, %union.anon.4, i32, %union.anon.6, i32, i32, i32, i32, i64, ptr }
%struct._zend_refcounted_h = type { i32, %union.anon.3 }
%union.anon.3 = type { i32 }
%union.anon.4 = type { i32 }
%union.anon.6 = type { ptr }
%struct._phpdbg_watchpoint_t = type { %union.anon.27, i64, i32, ptr, %struct._zend_array, ptr, %union.anon.28 }
%union.anon.27 = type { ptr }
%union.anon.28 = type { %struct._zend_array }
%struct._phpdbg_watch_element = type { i32, ptr, i8, ptr, ptr, %struct._zend_array, ptr, ptr, ptr, %union.anon.29 }
%union.anon.29 = type { %struct._zend_array }

; Function Attrs: nounwind uwtable
define hidden void @phpdbg_clean_watch_element(ptr noundef %0) #0 {
  %2 = alloca ptr, align 8
  %3 = alloca ptr, align 8
  %4 = alloca ptr, align 8
  store ptr %0, ptr %3, align 8
  %5 = load ptr, ptr %3, align 8
  %6 = getelementptr inbounds %struct._phpdbg_watch_element, ptr %5, i32 0, i32 1
  %7 = load ptr, ptr %6, align 8
  %8 = getelementptr inbounds %struct._phpdbg_watchpoint_t, ptr %7, i32 0, i32 4
  store ptr %8, ptr %4, align 8
  %9 = load ptr, ptr %3, align 8
  call void @phpdbg_unwatch_parent_ht(ptr noundef %9)
  %10 = load ptr, ptr %4, align 8
  %11 = load ptr, ptr %3, align 8
  %12 = getelementptr inbounds %struct._phpdbg_watch_element, ptr %11, i32 0, i32 8
  %13 = load ptr, ptr %12, align 8
  %14 = call i32 @zend_hash_del(ptr noundef %10, ptr noundef %13)
  %15 = load ptr, ptr %4, align 8
  store ptr %15, ptr %2, align 8
  %16 = load ptr, ptr %2, align 8
  %17 = getelementptr inbounds %struct._zend_array, ptr %16, i32 0, i32 5
  %18 = load i32, ptr %17, align 4
  %19 = icmp eq i32 %18, 0
  br i1 %19, label %20, label %24

20:                                               ; preds = %1
  %21 = load ptr, ptr %3, align 8
  %22 = getelementptr inbounds %struct._phpdbg_watch_element, ptr %21, i32 0, i32 1
  %23 = load ptr, ptr %22, align 8
  call void @phpdbg_remove_watchpoint(ptr noundef %23)
  br label %24

24:                                               ; preds = %20, %1
  ret void
}

; Function Attrs: nounwind uwtable
define hidden void @phpdbg_backup_watch_element(ptr noundef %0) #0 {
  %2 = alloca ptr, align 8
  store ptr %0, ptr %2, align 8
  %3 = load ptr, ptr %2, align 8
  %4 = getelementptr inbounds %struct._phpdbg_watch_element, ptr %3, i32 0, i32 9
  %5 = load ptr, ptr %2, align 8
  %6 = getelementptr inbounds %struct._phpdbg_watch_element, ptr %5, i32 0, i32 1
  %7 = load ptr, ptr %6, align 8
  %8 = getelementptr inbounds %struct._phpdbg_watchpoint_t, ptr %7, i32 0, i32 6
  call void @llvm.memcpy.p0.p0.i64(ptr align 8 %4, ptr align 8 %8, i64 56, i1 false)
  ret void
}

; Function Attrs: nounwind uwtable
define hidden void @phpdbg_dissociate_watch_element(ptr noundef %0, ptr noundef %1) #0 {
  %3 = alloca ptr, align 8
  %4 = alloca ptr, align 8
  %5 = alloca ptr, align 8
  store ptr %0, ptr %3, align 8
  store ptr %1, ptr %4, align 8
  %6 = load ptr, ptr %3, align 8
  store ptr %6, ptr %5, align 8
  %7 = load ptr, ptr %3, align 8
  %8 = getelementptr inbounds %struct._phpdbg_watch_element, ptr %7, i32 0, i32 2
  %9 = load i8, ptr %8, align 8
  %10 = sext i8 %9 to i32
  %11 = and i32 %10, 34
  %12 = icmp ne i32 %11, 2
  call void @llvm.assume(i1 %12)
  %13 = load ptr, ptr %3, align 8
  %14 = getelementptr inbounds %struct._phpdbg_watch_element, ptr %13, i32 0, i32 2
  %15 = load i8, ptr %14, align 8
  %16 = sext i8 %15 to i32
  %17 = and i32 %16, 32
  %18 = icmp ne i32 %17, 0
  br i1 %18, label %19, label %22

19:                                               ; preds = %2
  %20 = load ptr, ptr %3, align 8
  call void @phpdbg_backup_watch_element(ptr noundef %20)
  %21 = load ptr, ptr %3, align 8
  call void @phpdbg_remove_watch_element_recursively(ptr noundef %21)
  br label %69

22:                                               ; preds = %2
  br label %23

23:                                               ; preds = %58, %22
  %24 = load ptr, ptr %5, align 8
  %25 = getelementptr inbounds %struct._phpdbg_watch_element, ptr %24, i32 0, i32 3
  %26 = load ptr, ptr %25, align 8
  %27 = load ptr, ptr %4, align 8
  %28 = icmp ne ptr %26, %27
  br i1 %28, label %29, label %60

29:                                               ; preds = %23
  %30 = load ptr, ptr %5, align 8
  %31 = getelementptr inbounds %struct._phpdbg_watch_element, ptr %30, i32 0, i32 3
  %32 = load ptr, ptr %31, align 8
  store ptr %32, ptr %5, align 8
  %33 = load ptr, ptr %5, align 8
  %34 = getelementptr inbounds %struct._phpdbg_watch_element, ptr %33, i32 0, i32 2
  %35 = load i8, ptr %34, align 8
  %36 = sext i8 %35 to i32
  %37 = and i32 %36, 32
  %38 = icmp ne i32 %37, 0
  br i1 %38, label %39, label %44

39:                                               ; preds = %29
  %40 = load ptr, ptr %5, align 8
  call void @phpdbg_backup_watch_element(ptr noundef %40)
  %41 = load ptr, ptr %5, align 8
  call void @phpdbg_remove_watch_element_recursively(ptr noundef %41)
  %42 = load ptr, ptr %5, align 8
  %43 = getelementptr inbounds %struct._phpdbg_watch_element, ptr %42, i32 0, i32 3
  store ptr null, ptr %43, align 8
  br label %60

44:                                               ; preds = %29
  %45 = load ptr, ptr %5, align 8
  %46 = getelementptr inbounds %struct._phpdbg_watch_element, ptr %45, i32 0, i32 3
  %47 = load ptr, ptr %46, align 8
  %48 = icmp eq ptr %47, null
  br i1 %48, label %56, label %49

49:                                               ; preds = %44
  %50 = load ptr, ptr %5, align 8
  %51 = getelementptr inbounds %struct._phpdbg_watch_element, ptr %50, i32 0, i32 2
  %52 = load i8, ptr %51, align 8
  %53 = sext i8 %52 to i32
  %54 = and i32 %53, 32
  %55 = icmp ne i32 %54, 0
  br i1 %55, label %56, label %58

56:                                               ; preds = %49, %44
  %57 = load ptr, ptr %5, align 8
  call void @phpdbg_backup_watch_element(ptr noundef %57)
  br label %58

58:                                               ; preds = %56, %49
  %59 = load ptr, ptr %5, align 8
  call void @phpdbg_clean_watch_element(ptr noundef %59)
  br label %23

60:                                               ; preds = %39, %23
  %61 = load ptr, ptr %3, align 8
  %62 = getelementptr inbounds %struct._phpdbg_watch_element, ptr %61, i32 0, i32 3
  %63 = load ptr, ptr %62, align 8
  %64 = icmp eq ptr %63, null
  br i1 %64, label %65, label %67

65:                                               ; preds = %60
  %66 = load ptr, ptr %3, align 8
  call void @phpdbg_backup_watch_element(ptr noundef %66)
  br label %67

67:                                               ; preds = %65, %60
  %68 = load ptr, ptr %3, align 8
  call void @phpdbg_clean_watch_element(ptr noundef %68)
  br label %69

69:                                               ; preds = %67, %19
  ret void
}