; Function Attrs: nounwind uwtable
define hidden void @phpdbg_dissociate_watch_element(ptr noundef %0, ptr noundef readnone %1) local_unnamed_addr #0 {
  %3 = getelementptr inbounds i8, ptr %0, i64 16
  %4 = load i8, ptr %3, align 8
  %5 = zext i8 %4 to i32
  %6 = and i32 %5, 34
  %7 = icmp ne i32 %6, 2
  tail call void @llvm.assume(i1 %7)
  %8 = and i32 %5, 32
  %.not = icmp eq i32 %8, 0
  br i1 %.not, label %.preheader, label %11

.preheader:                                       ; preds = %2
  %9 = getelementptr inbounds i8, ptr %0, i64 24
  %10 = load ptr, ptr %9, align 8
  %.not2024 = icmp eq ptr %10, %1
  br i1 %.not2024, label %.loopexit, label %.lr.ph

11:                                               ; preds = %2
  %12 = getelementptr inbounds i8, ptr %0, i64 120
  %13 = getelementptr inbounds i8, ptr %0, i64 8
  %14 = load ptr, ptr %13, align 8
  %15 = getelementptr inbounds i8, ptr %14, i64 96
  tail call void @llvm.memcpy.p0.p0.i64(ptr noundef nonnull align 8 dereferenceable(56) %12, ptr noundef nonnull align 8 dereferenceable(56) %15, i64 56, i1 false)
  tail call void @phpdbg_remove_watch_element_recursively(ptr noundef nonnull %0)
  br label %phpdbg_clean_watch_element.exit22

.lr.ph:                                           ; preds = %.preheader, %phpdbg_clean_watch_element.exit
  %16 = phi ptr [ %47, %phpdbg_clean_watch_element.exit ], [ %10, %.preheader ]
  %17 = getelementptr inbounds i8, ptr %16, i64 16
  %18 = load i8, ptr %17, align 8
  %19 = and i8 %18, 32
  %.not21 = icmp eq i8 %19, 0
  br i1 %.not21, label %26, label %20

20:                                               ; preds = %.lr.ph
  %21 = getelementptr inbounds i8, ptr %16, i64 120
  %22 = getelementptr inbounds i8, ptr %16, i64 8
  %23 = load ptr, ptr %22, align 8
  %24 = getelementptr inbounds i8, ptr %23, i64 96
  tail call void @llvm.memcpy.p0.p0.i64(ptr noundef nonnull align 8 dereferenceable(56) %21, ptr noundef nonnull align 8 dereferenceable(56) %24, i64 56, i1 false)
  tail call void @phpdbg_remove_watch_element_recursively(ptr noundef nonnull %16)
  %25 = getelementptr inbounds i8, ptr %16, i64 24
  store ptr null, ptr %25, align 8
  br label %.loopexitthread-pre-split

26:                                               ; preds = %.lr.ph
  %27 = getelementptr inbounds i8, ptr %16, i64 24
  %28 = load ptr, ptr %27, align 8
  %29 = icmp eq ptr %28, null
  br i1 %29, label %30, label %._crit_edge

._crit_edge:                                      ; preds = %26
  %.phi.trans.insert = getelementptr inbounds i8, ptr %16, i64 8
  %.pre = load ptr, ptr %.phi.trans.insert, align 8
  br label %35

30:                                               ; preds = %26
  %31 = getelementptr inbounds i8, ptr %16, i64 120
  %32 = getelementptr inbounds i8, ptr %16, i64 8
  %33 = load ptr, ptr %32, align 8
  %34 = getelementptr inbounds i8, ptr %33, i64 96
  tail call void @llvm.memcpy.p0.p0.i64(ptr noundef nonnull align 8 dereferenceable(56) %31, ptr noundef nonnull align 8 dereferenceable(56) %34, i64 56, i1 false)
  br label %35

35:                                               ; preds = %._crit_edge, %30
  %36 = phi ptr [ %.pre, %._crit_edge ], [ %33, %30 ]
  %37 = getelementptr inbounds i8, ptr %36, i64 32
  tail call void @phpdbg_unwatch_parent_ht(ptr noundef nonnull %16)
  %38 = getelementptr inbounds i8, ptr %16, i64 112
  %39 = load ptr, ptr %38, align 8
  %40 = tail call i32 @zend_hash_del(ptr noundef nonnull %37, ptr noundef %39) #17
  %41 = getelementptr inbounds i8, ptr %36, i64 60
  %42 = load i32, ptr %41, align 4
  %43 = icmp eq i32 %42, 0
  br i1 %43, label %44, label %phpdbg_clean_watch_element.exit

44:                                               ; preds = %35
  %45 = getelementptr inbounds i8, ptr %16, i64 8
  %46 = load ptr, ptr %45, align 8
  tail call void @phpdbg_remove_watchpoint(ptr noundef %46)
  br label %phpdbg_clean_watch_element.exit

phpdbg_clean_watch_element.exit:                  ; preds = %35, %44
  %47 = load ptr, ptr %27, align 8
  %.not20 = icmp eq ptr %47, %1
  br i1 %.not20, label %.loopexitthread-pre-split, label %.lr.ph

.loopexitthread-pre-split:                        ; preds = %phpdbg_clean_watch_element.exit, %20
  %.pr = load ptr, ptr %9, align 8
  br label %.loopexit

.loopexit:                                        ; preds = %.loopexitthread-pre-split, %.preheader
  %48 = phi ptr [ %.pr, %.loopexitthread-pre-split ], [ %10, %.preheader ]
  %49 = icmp eq ptr %48, null
  br i1 %49, label %50, label %.loopexit._crit_edge

.loopexit._crit_edge:                             ; preds = %.loopexit
  %.phi.trans.insert26 = getelementptr inbounds i8, ptr %0, i64 8
  %.pre27 = load ptr, ptr %.phi.trans.insert26, align 8
  br label %55

50:                                               ; preds = %.loopexit
  %51 = getelementptr inbounds i8, ptr %0, i64 120
  %52 = getelementptr inbounds i8, ptr %0, i64 8
  %53 = load ptr, ptr %52, align 8
  %54 = getelementptr inbounds i8, ptr %53, i64 96
  tail call void @llvm.memcpy.p0.p0.i64(ptr noundef nonnull align 8 dereferenceable(56) %51, ptr noundef nonnull align 8 dereferenceable(56) %54, i64 56, i1 false)
  br label %55

55:                                               ; preds = %.loopexit._crit_edge, %50
  %56 = phi ptr [ %.pre27, %.loopexit._crit_edge ], [ %53, %50 ]
  %57 = getelementptr inbounds i8, ptr %56, i64 32
  tail call void @phpdbg_unwatch_parent_ht(ptr noundef nonnull %0)
  %58 = getelementptr inbounds i8, ptr %0, i64 112
  %59 = load ptr, ptr %58, align 8
  %60 = tail call i32 @zend_hash_del(ptr noundef nonnull %57, ptr noundef %59) #17
  %61 = getelementptr inbounds i8, ptr %56, i64 60
  %62 = load i32, ptr %61, align 4
  %63 = icmp eq i32 %62, 0
  br i1 %63, label %64, label %phpdbg_clean_watch_element.exit22

64:                                               ; preds = %55
  %65 = getelementptr inbounds i8, ptr %0, i64 8
  %66 = load ptr, ptr %65, align 8
  tail call void @phpdbg_remove_watchpoint(ptr noundef %66)
  br label %phpdbg_clean_watch_element.exit22

phpdbg_clean_watch_element.exit22:                ; preds = %64, %55, %11
  ret void
}